target datalayout = "e-m:e-p270:32:32-p271:32:32-p272:64:64-i64:64-i128:128-f80:128-n8:16:32:64-S128"
target triple = "x86_64-pc-linux-gnu"

%struct.ARG_list = type { ptr, i8, [0 x i8] }

@.str = private unnamed_addr constant [5 x i8] c"step\00", align 1

; Function Attrs: mustprogress nounwind uwtable
define noundef ptr @_Z15pj_param_existsP8ARG_listPKc(ptr noundef %0, ptr noundef %1) #0 {
  %3 = alloca ptr, align 8
  %4 = alloca ptr, align 8
  %5 = alloca ptr, align 8
  %6 = alloca ptr, align 8
  %7 = alloca ptr, align 8
  %8 = alloca i64, align 8
  %9 = alloca i32, align 4
  store ptr %0, ptr %4, align 8, !tbaa !8
  store ptr %1, ptr %5, align 8, !tbaa !3
  call void @llvm.lifetime.start.p0(i64 8, ptr %6) #13
  %10 = load ptr, ptr %4, align 8, !tbaa !8
  store ptr %10, ptr %6, align 8, !tbaa !8
  call void @llvm.lifetime.start.p0(i64 8, ptr %7) #13
  %11 = load ptr, ptr %5, align 8, !tbaa !3
  %12 = call noundef ptr @strchr(ptr noundef %11, i32 noundef 61) #14
  store ptr %12, ptr %7, align 8, !tbaa !3
  call void @llvm.lifetime.start.p0(i64 8, ptr %8) #13
  %13 = load ptr, ptr %5, align 8, !tbaa !3
  %14 = call i64 @strlen(ptr noundef %13) #14
  store i64 %14, ptr %8, align 8, !tbaa !14
  %15 = load ptr, ptr %7, align 8, !tbaa !3
  %16 = icmp ne ptr %15, null
  br i1 %16, label %17, label %23

17:                                               ; preds = %2
  %18 = load ptr, ptr %7, align 8, !tbaa !3
  %19 = load ptr, ptr %5, align 8, !tbaa !3
  %20 = ptrtoint ptr %18 to i64
  %21 = ptrtoint ptr %19 to i64
  %22 = sub i64 %20, %21
  store i64 %22, ptr %8, align 8, !tbaa !14
  br label %23

23:                                               ; preds = %17, %2
  %24 = load ptr, ptr %4, align 8, !tbaa !8
  %25 = icmp eq ptr %24, null
  br i1 %25, label %26, label %27

26:                                               ; preds = %23
  store ptr null, ptr %3, align 8
  store i32 1, ptr %9, align 4
  br label %71

27:                                               ; preds = %23
  %28 = load ptr, ptr %4, align 8, !tbaa !8
  store ptr %28, ptr %6, align 8, !tbaa !8
  br label %29

29:                                               ; preds = %66, %27
  %30 = load ptr, ptr %6, align 8, !tbaa !8
  %31 = icmp ne ptr %30, null
  br i1 %31, label %32, label %70

32:                                               ; preds = %29
  %33 = load ptr, ptr %5, align 8, !tbaa !3
  %34 = load ptr, ptr %6, align 8, !tbaa !8
  %35 = getelementptr inbounds nuw %struct.ARG_list, ptr %34, i32 0, i32 2
  %36 = getelementptr inbounds [0 x i8], ptr %35, i64 0, i64 0
  %37 = load i64, ptr %8, align 8, !tbaa !14
  %38 = call i32 @strncmp(ptr noundef %33, ptr noundef %36, i64 noundef %37) #14
  %39 = icmp eq i32 0, %38
  br i1 %39, label %40, label %60

40:                                               ; preds = %32
  %41 = load ptr, ptr %6, align 8, !tbaa !8
  %42 = getelementptr inbounds nuw %struct.ARG_list, ptr %41, i32 0, i32 2
  %43 = load i64, ptr %8, align 8, !tbaa !14
  %44 = getelementptr inbounds nuw [0 x i8], ptr %42, i64 0, i64 %43
  %45 = load i8, ptr %44, align 1, !tbaa !10
  %46 = sext i8 %45 to i32
  %47 = icmp eq i32 %46, 61
  br i1 %47, label %56, label %48

48:                                               ; preds = %40
  %49 = load ptr, ptr %6, align 8, !tbaa !8
  %50 = getelementptr inbounds nuw %struct.ARG_list, ptr %49, i32 0, i32 2
  %51 = load i64, ptr %8, align 8, !tbaa !14
  %52 = getelementptr inbounds nuw [0 x i8], ptr %50, i64 0, i64 %51
  %53 = load i8, ptr %52, align 1, !tbaa !10
  %54 = sext i8 %53 to i32
  %55 = icmp eq i32 %54, 0
  br i1 %55, label %56, label %60

56:                                               ; preds = %48, %40
  %57 = load ptr, ptr %6, align 8, !tbaa !8
  %58 = getelementptr inbounds nuw %struct.ARG_list, ptr %57, i32 0, i32 1
  store i8 1, ptr %58, align 8, !tbaa !10
  %59 = load ptr, ptr %6, align 8, !tbaa !8
  store ptr %59, ptr %3, align 8
  store i32 1, ptr %9, align 4
  br label %71

60:                                               ; preds = %48, %32
  %61 = load ptr, ptr %5, align 8, !tbaa !3
  %62 = call i32 @strcmp(ptr noundef %61, ptr noundef @.str) #14
  %63 = icmp eq i32 0, %62
  br i1 %63, label %64, label %65

64:                                               ; preds = %60
  store ptr null, ptr %3, align 8
  store i32 1, ptr %9, align 4
  br label %71

65:                                               ; preds = %60
  br label %66

66:                                               ; preds = %65
  %67 = load ptr, ptr %6, align 8, !tbaa !8
  %68 = getelementptr inbounds nuw %struct.ARG_list, ptr %67, i32 0, i32 0
  %69 = load ptr, ptr %68, align 8, !tbaa !8
  store ptr %69, ptr %6, align 8, !tbaa !8
  br label %29, !llvm.loop !29

70:                                               ; preds = %29
  store ptr null, ptr %3, align 8
  store i32 1, ptr %9, align 4
  br label %71

71:                                               ; preds = %70, %64, %56, %26
  call void @llvm.lifetime.end.p0(i64 8, ptr %8) #13
  call void @llvm.lifetime.end.p0(i64 8, ptr %7) #13
  call void @llvm.lifetime.end.p0(i64 8, ptr %6) #13
  %72 = load ptr, ptr %3, align 8
  ret ptr %72
}