; Function Attrs: mustprogress nofree nounwind memory(readwrite, inaccessiblemem: none) uwtable
define noundef ptr @_Z15pj_param_existsP8ARG_listPKc(ptr noundef %0, ptr noundef %1) local_unnamed_addr #7 {
  %3 = tail call noundef ptr @strchr(ptr noundef nonnull dereferenceable(1) %1, i32 noundef 61) #15
  %4 = tail call i64 @strlen(ptr noundef nonnull dereferenceable(1) %1) #15
  %.not = icmp eq ptr %3, null
  %5 = ptrtoint ptr %3 to i64
  %6 = ptrtoint ptr %1 to i64
  %7 = sub i64 %5, %6
  %.0 = select i1 %.not, i64 %4, i64 %7
  %8 = icmp eq ptr %0, null
  br i1 %8, label %.loopexit, label %.preheader

.preheader:                                       ; preds = %2, %20
  %.02127 = phi ptr [ %21, %20 ], [ %0, %2 ]
  %9 = getelementptr inbounds nuw i8, ptr %.02127, i64 9
  %10 = tail call i32 @strncmp(ptr noundef nonnull %1, ptr noundef nonnull %9, i64 noundef %.0) #15
  %11 = icmp eq i32 %10, 0
  br i1 %11, label %12, label %17

12:                                               ; preds = %.preheader
  %13 = getelementptr inbounds nuw [0 x i8], ptr %9, i64 0, i64 %.0
  %14 = load i8, ptr %13, align 1, !tbaa !3
  switch i8 %14, label %17 [
    i8 61, label %15
    i8 0, label %15
  ]

15:                                               ; preds = %12, %12
  %16 = getelementptr inbounds nuw i8, ptr %.02127, i64 8
  store i8 1, ptr %16, align 8, !tbaa !3
  br label %.loopexit

17:                                               ; preds = %12, %.preheader
  %18 = tail call i32 @strcmp(ptr noundef nonnull dereferenceable(1) %1, ptr noundef nonnull dereferenceable(5) @.str) #15
  %19 = icmp eq i32 %18, 0
  br i1 %19, label %.loopexit, label %20

20:                                               ; preds = %17
  %21 = load ptr, ptr %.02127, align 8, !tbaa !6
  %.not25 = icmp eq ptr %21, null
  br i1 %.not25, label %.loopexit, label %.preheader, !llvm.loop !18

.loopexit:                                        ; preds = %20, %17, %2, %15
  %.020 = phi ptr [ %.02127, %15 ], [ null, %2 ], [ null, %17 ], [ null, %20 ]
  ret ptr %.020
}